target datalayout = "e-m:e-p270:32:32-p271:32:32-p272:64:64-i64:64-f80:128-n8:16:32:64-S128"
target triple = "x86_64-pc-linux-gnu"

@.str = private unnamed_addr constant [3 x i8] c"%d\00", align 1
@.str.1 = private unnamed_addr constant [3 x i8] c"%s\00", align 1
@.str.2 = private unnamed_addr constant [4 x i8] c"NO\0A\00", align 1
@.str.3 = private unnamed_addr constant [4 x i8] c"%d\0A\00", align 1
@.str.4 = private unnamed_addr constant [3 x i8] c"%c\00", align 1
@.str.5 = private unnamed_addr constant [2 x i8] c"\0A\00", align 1

; Function Attrs: noinline nounwind uwtable
define dso_local i32 @main() #0 {
  %1 = alloca i32, align 4
  %2 = alloca i32, align 4
  %3 = alloca [600 x i8], align 16
  %4 = alloca i32, align 4
  %5 = alloca i32, align 4
  %6 = alloca i32, align 4
  %7 = alloca [600 x i32], align 16
  %8 = alloca i32, align 4
  store i32 0, i32* %1, align 4
  %9 = call i32 (i8*, ...) @__isoc99_scanf(i8* getelementptr inbounds ([3 x i8], [3 x i8]* @.str, i64 0, i64 0), i32* %2)
  %10 = getelementptr inbounds [600 x i8], [600 x i8]* %3, i64 0, i64 0
  %11 = call i32 (i8*, ...) @__isoc99_scanf(i8* getelementptr inbounds ([3 x i8], [3 x i8]* @.str.1, i64 0, i64 0), i8* %10)
  store i32 0, i32* %4, align 4
  br label %12

12:                                               ; preds = %79, %0
  %13 = load i32, i32* %4, align 4
  %14 = sext i32 %13 to i64
  %15 = getelementptr inbounds [600 x i8], [600 x i8]* %3, i64 0, i64 0
  %16 = call i64 @strlen(i8* %15) #3
  %17 = load i32, i32* %2, align 4
  %18 = sext i32 %17 to i64
  %19 = sub i64 %16, %18
  %20 = add i64 %19, 1
  %21 = icmp ult i64 %14, %20
  br i1 %21, label %22, label %82

22:                                               ; preds = %12
  %23 = load i32, i32* %4, align 4
  %24 = sext i32 %23 to i64
  %25 = getelementptr inbounds [600 x i32], [600 x i32]* %7, i64 0, i64 %24
  store i32 1, i32* %25, align 4
  %26 = load i32, i32* %4, align 4
  %27 = add nsw i32 %26, 1
  store i32 %27, i32* %5, align 4
  br label %28

28:                                               ; preds = %75, %22
  %29 = load i32, i32* %5, align 4
  %30 = sext i32 %29 to i64
  %31 = getelementptr inbounds [600 x i8], [600 x i8]* %3, i64 0, i64 0
  %32 = call i64 @strlen(i8* %31) #3
  %33 = load i32, i32* %2, align 4
  %34 = sext i32 %33 to i64
  %35 = sub i64 %32, %34
  %36 = add i64 %35, 1
  %37 = icmp ult i64 %30, %36
  br i1 %37, label %38, label %78

38:                                               ; preds = %28
  store i32 0, i32* %6, align 4
  br label %39

39:                                               ; preds = %61, %38
  %40 = load i32, i32* %6, align 4
  %41 = load i32, i32* %2, align 4
  %42 = icmp slt i32 %40, %41
  br i1 %42, label %43, label %64

43:                                               ; preds = %39
  %44 = load i32, i32* %5, align 4
  %45 = load i32, i32* %6, align 4
  %46 = add nsw i32 %44, %45
  %47 = sext i32 %46 to i64
  %48 = getelementptr inbounds [600 x i8], [600 x i8]* %3, i64 0, i64 %47
  %49 = load i8, i8* %48, align 1
  %50 = sext i8 %49 to i32
  %51 = load i32, i32* %4, align 4
  %52 = load i32, i32* %6, align 4
  %53 = add nsw i32 %51, %52
  %54 = sext i32 %53 to i64
  %55 = getelementptr inbounds [600 x i8], [600 x i8]* %3, i64 0, i64 %54
  %56 = load i8, i8* %55, align 1
  %57 = sext i8 %56 to i32
  %58 = icmp ne i32 %50, %57
  br i1 %58, label %59, label %60

59:                                               ; preds = %43
  br label %64

60:                                               ; preds = %43
  br label %61

61:                                               ; preds = %60
  %62 = load i32, i32* %6, align 4
  %63 = add nsw i32 %62, 1
  store i32 %63, i32* %6, align 4
  br label %39

64:                                               ; preds = %59, %39
  %65 = load i32, i32* %6, align 4
  %66 = load i32, i32* %2, align 4
  %67 = icmp eq i32 %65, %66
  br i1 %67, label %68, label %74

68:                                               ; preds = %64
  %69 = load i32, i32* %4, align 4
  %70 = sext i32 %69 to i64
  %71 = getelementptr inbounds [600 x i32], [600 x i32]* %7, i64 0, i64 %70
  %72 = load i32, i32* %71, align 4
  %73 = add nsw i32 %72, 1
  store i32 %73, i32* %71, align 4
  br label %74

74:                                               ; preds = %68, %64
  br label %75

75:                                               ; preds = %74
  %76 = load i32, i32* %5, align 4
  %77 = add nsw i32 %76, 1
  store i32 %77, i32* %5, align 4
  br label %28

78:                                               ; preds = %28
  br label %79

79:                                               ; preds = %78
  %80 = load i32, i32* %4, align 4
  %81 = add nsw i32 %80, 1
  store i32 %81, i32* %4, align 4
  br label %12

82:                                               ; preds = %12
  store i32 0, i32* %8, align 4
  store i32 0, i32* %4, align 4
  br label %83

83:                                               ; preds = %106, %82
  %84 = load i32, i32* %4, align 4
  %85 = sext i32 %84 to i64
  %86 = getelementptr inbounds [600 x i8], [600 x i8]* %3, i64 0, i64 0
  %87 = call i64 @strlen(i8* %86) #3
  %88 = load i32, i32* %2, align 4
  %89 = sext i32 %88 to i64
  %90 = sub i64 %87, %89
  %91 = add i64 %90, 1
  %92 = icmp ult i64 %85, %91
  br i1 %92, label %93, label %109

93:                                               ; preds = %83
  %94 = load i32, i32* %4, align 4
  %95 = sext i32 %94 to i64
  %96 = getelementptr inbounds [600 x i32], [600 x i32]* %7, i64 0, i64 %95
  %97 = load i32, i32* %96, align 4
  %98 = load i32, i32* %8, align 4
  %99 = icmp sgt i32 %97, %98
  br i1 %99, label %100, label %105

100:                                              ; preds = %93
  %101 = load i32, i32* %4, align 4
  %102 = sext i32 %101 to i64
  %103 = getelementptr inbounds [600 x i32], [600 x i32]* %7, i64 0, i64 %102
  %104 = load i32, i32* %103, align 4
  store i32 %104, i32* %8, align 4
  br label %105

105:                                              ; preds = %100, %93
  br label %106

106:                                              ; preds = %105
  %107 = load i32, i32* %4, align 4
  %108 = add nsw i32 %107, 1
  store i32 %108, i32* %4, align 4
  br label %83

109:                                              ; preds = %83
  %110 = load i32, i32* %8, align 4
  %111 = icmp slt i32 %110, 2
  br i1 %111, label %112, label %114

112:                                              ; preds = %109
  %113 = call i32 (i8*, ...) @printf(i8* getelementptr inbounds ([4 x i8], [4 x i8]* @.str.2, i64 0, i64 0))
  br label %159

114:                                              ; preds = %109
  %115 = load i32, i32* %8, align 4
  %116 = call i32 (i8*, ...) @printf(i8* getelementptr inbounds ([4 x i8], [4 x i8]* @.str.3, i64 0, i64 0), i32 %115)
  store i32 0, i32* %4, align 4
  br label %117

117:                                              ; preds = %155, %114
  %118 = load i32, i32* %4, align 4
  %119 = sext i32 %118 to i64
  %120 = getelementptr inbounds [600 x i8], [600 x i8]* %3, i64 0, i64 0
  %121 = call i64 @strlen(i8* %120) #3
  %122 = load i32, i32* %2, align 4
  %123 = sext i32 %122 to i64
  %124 = sub i64 %121, %123
  %125 = add i64 %124, 1
  %126 = icmp ult i64 %119, %125
  br i1 %126, label %127, label %158

127:                                              ; preds = %117
  %128 = load i32, i32* %4, align 4
  %129 = sext i32 %128 to i64
  %130 = getelementptr inbounds [600 x i32], [600 x i32]* %7, i64 0, i64 %129
  %131 = load i32, i32* %130, align 4
  %132 = load i32, i32* %8, align 4
  %133 = icmp eq i32 %131, %132
  br i1 %133, label %134, label %154

134:                                              ; preds = %127
  %135 = load i32, i32* %4, align 4
  store i32 %135, i32* %5, align 4
  br label %136

136:                                              ; preds = %149, %134
  %137 = load i32, i32* %5, align 4
  %138 = load i32, i32* %4, align 4
  %139 = load i32, i32* %2, align 4
  %140 = add nsw i32 %138, %139
  %141 = icmp slt i32 %137, %140
  br i1 %141, label %142, label %152

142:                                              ; preds = %136
  %143 = load i32, i32* %5, align 4
  %144 = sext i32 %143 to i64
  %145 = getelementptr inbounds [600 x i8], [600 x i8]* %3, i64 0, i64 %144
  %146 = load i8, i8* %145, align 1
  %147 = sext i8 %146 to i32
  %148 = call i32 (i8*, ...) @printf(i8* getelementptr inbounds ([3 x i8], [3 x i8]* @.str.4, i64 0, i64 0), i32 %147)
  br label %149

149:                                              ; preds = %142
  %150 = load i32, i32* %5, align 4
  %151 = add nsw i32 %150, 1
  store i32 %151, i32* %5, align 4
  br label %136

152:                                              ; preds = %136
  %153 = call i32 (i8*, ...) @printf(i8* getelementptr inbounds ([2 x i8], [2 x i8]* @.str.5, i64 0, i64 0))
  br label %154

154:                                              ; preds = %152, %127
  br label %155

155:                                              ; preds = %154
  %156 = load i32, i32* %4, align 4
  %157 = add nsw i32 %156, 1
  store i32 %157, i32* %4, align 4
  br label %117

158:                                              ; preds = %117
  br label %159

159:                                              ; preds = %158, %112
  ret i32 0
}